target datalayout = "e-m:e-p270:32:32-p271:32:32-p272:64:64-i64:64-i128:128-f80:128-n8:16:32:64-S128"
target triple = "x86_64-pc-linux-gnu"

%struct.darktable_t = type { %struct.dt_codepath_t, i32, i32, ptr, ptr, ptr, ptr, ptr, ptr, ptr, ptr, ptr, ptr, ptr, ptr, ptr, ptr, ptr, ptr, ptr, ptr, ptr, ptr, ptr, ptr, ptr, ptr, ptr, ptr, ptr, [64 x %struct.dt_pthread_mutex_t], %struct.dt_pthread_mutex_t, %struct.dt_pthread_mutex_t, %struct.dt_pthread_mutex_t, %struct.dt_pthread_mutex_t, %struct.dt_pthread_mutex_t, ptr, ptr, ptr, ptr, ptr, ptr, ptr, ptr, ptr, ptr, ptr, ptr, ptr, %struct.dt_lua_state_t, ptr, double, ptr, i32, [47 x i32], i32, i32, ptr, ptr, %struct.dt_sys_resources_t, %struct.dt_backthumb_t, %struct.dt_gimp_t }
%struct.dt_codepath_t = type { i8, [3 x i8] }
%struct.dt_pthread_mutex_t = type { %union.pthread_mutex_t }
%union.pthread_mutex_t = type { %struct.__pthread_mutex_s }
%struct.__pthread_mutex_s = type { i32, i32, i32, i32, i32, i16, i16, %struct.__pthread_internal_list }
%struct.__pthread_internal_list = type { ptr, ptr }
%struct.dt_lua_state_t = type { i32 }
%struct.dt_sys_resources_t = type { i64, i64, ptr, ptr, i32 }
%struct.dt_backthumb_t = type { double, double, i32, i32, i32, i32 }
%struct.dt_gimp_t = type { i32, ptr, ptr, i32, i32 }

@darktable = external global %struct.darktable_t, align 8
@.str.43 = private unnamed_addr constant [115 x i8] c"generated/home/dtcxzyw/WorkSpace/Projects/compilers/llvm-opt-benchmark/bench/darktable/darktable/src/gui/presets.c\00", align 1
@stderr = external global ptr, align 8
@.str.45 = private unnamed_addr constant [53 x i8] c"sqlite3 error: %s:%d, function %s(), query \22%s\22: %s\0A\00", align 1
@.str.46 = private unnamed_addr constant [41 x i8] c"[sql] %s:%d, function %s(): prepare \22%s\22\00", align 1
@.str.48 = private unnamed_addr constant [41 x i8] c"sqlite3 error: %s:%d, function %s(): %s\0A\00", align 1
@__FUNCTION__.dt_gui_presets_update_format = private unnamed_addr constant [29 x i8] c"dt_gui_presets_update_format\00", align 1
@.str.101 = private unnamed_addr constant [83 x i8] c"UPDATE data.presets SET format=?1 WHERE operation=?2 AND op_version=?3 AND name=?4\00", align 1

; Function Attrs: nounwind uwtable
define void @dt_gui_presets_update_format(ptr noundef %0, ptr noundef %1, i32 noundef %2, i32 noundef %3) #0 {
  %5 = alloca ptr, align 8
  %6 = alloca ptr, align 8
  %7 = alloca i32, align 4
  %8 = alloca i32, align 4
  %9 = alloca ptr, align 8
  %10 = alloca i32, align 4
  %11 = alloca i32, align 4
  %12 = alloca i32, align 4
  %13 = alloca i32, align 4
  %14 = alloca i32, align 4
  store ptr %0, ptr %5, align 8, !tbaa !11
  store ptr %1, ptr %6, align 8, !tbaa !11
  store i32 %2, ptr %7, align 4, !tbaa !13
  store i32 %3, ptr %8, align 4, !tbaa !13
  call void @llvm.lifetime.start.p0(i64 8, ptr %9) #11
  br label %15

15:                                               ; preds = %4
  br label %16

16:                                               ; preds = %15
  %17 = load i32, ptr getelementptr inbounds nuw (%struct.darktable_t, ptr @darktable, i32 0, i32 2), align 8, !tbaa !23
  %18 = and i32 256, %17
  %19 = icmp ne i32 %18, 0
  br i1 %19, label %20, label %26

20:                                               ; preds = %16
  %21 = load i32, ptr getelementptr inbounds nuw (%struct.darktable_t, ptr @darktable, i32 0, i32 2), align 8, !tbaa !23
  %22 = xor i32 %21, -1
  %23 = and i32 0, %22
  %24 = icmp ne i32 %23, 0
  br i1 %24, label %26, label %25

25:                                               ; preds = %20
  call void (ptr, ...) @dt_print_ext(ptr noundef @.str.46, ptr noundef @.str.43, i32 noundef 1986, ptr noundef @__FUNCTION__.dt_gui_presets_update_format, ptr noundef @.str.101)
  br label %26

26:                                               ; preds = %25, %20, %16
  br label %27

27:                                               ; preds = %26
  br label %28

28:                                               ; preds = %27
  call void @llvm.lifetime.start.p0(i64 4, ptr %10) #11
  %29 = load ptr, ptr getelementptr inbounds nuw (%struct.darktable_t, ptr @darktable, i32 0, i32 18), align 8, !tbaa !59
  %30 = call ptr @dt_database_get(ptr noundef %29)
  %31 = call i32 @sqlite3_prepare_v2(ptr noundef %30, ptr noundef @.str.101, i32 noundef -1, ptr noundef %9, ptr noundef null)
  store i32 %31, ptr %10, align 4, !tbaa !13
  %32 = load i32, ptr %10, align 4, !tbaa !13
  %33 = icmp ne i32 %32, 0
  br i1 %33, label %34, label %40

34:                                               ; preds = %28
  %35 = load ptr, ptr @stderr, align 8, !tbaa !60
  %36 = load ptr, ptr getelementptr inbounds nuw (%struct.darktable_t, ptr @darktable, i32 0, i32 18), align 8, !tbaa !59
  %37 = call ptr @dt_database_get(ptr noundef %36)
  %38 = call ptr @sqlite3_errmsg(ptr noundef %37)
  %39 = call i32 (ptr, ptr, ...) @fprintf(ptr noundef %35, ptr noundef @.str.45, ptr noundef @.str.43, i32 noundef 1986, ptr noundef @__FUNCTION__.dt_gui_presets_update_format, ptr noundef @.str.101, ptr noundef %38) #11
  br label %40

40:                                               ; preds = %34, %28
  call void @llvm.lifetime.end.p0(i64 4, ptr %10) #11
  br label %41

41:                                               ; preds = %40
  br label %42

42:                                               ; preds = %41
  call void @llvm.lifetime.start.p0(i64 4, ptr %11) #11
  %43 = load ptr, ptr %9, align 8, !tbaa !62
  %44 = load i32, ptr %8, align 4, !tbaa !13
  %45 = call i32 @sqlite3_bind_int(ptr noundef %43, i32 noundef 1, i32 noundef %44)
  store i32 %45, ptr %11, align 4, !tbaa !13
  %46 = load i32, ptr %11, align 4, !tbaa !13
  %47 = icmp ne i32 %46, 0
  br i1 %47, label %48, label %54

48:                                               ; preds = %42
  %49 = load ptr, ptr @stderr, align 8, !tbaa !60
  %50 = load ptr, ptr getelementptr inbounds nuw (%struct.darktable_t, ptr @darktable, i32 0, i32 18), align 8, !tbaa !59
  %51 = call ptr @dt_database_get(ptr noundef %50)
  %52 = call ptr @sqlite3_errmsg(ptr noundef %51)
  %53 = call i32 (ptr, ptr, ...) @fprintf(ptr noundef %49, ptr noundef @.str.48, ptr noundef @.str.43, i32 noundef 1988, ptr noundef @__FUNCTION__.dt_gui_presets_update_format, ptr noundef %52) #11
  br label %54

54:                                               ; preds = %48, %42
  call void @llvm.lifetime.end.p0(i64 4, ptr %11) #11
  call void @llvm.lifetime.start.p0(i64 4, ptr %12) #11
  %55 = load ptr, ptr %9, align 8, !tbaa !62
  %56 = load ptr, ptr %6, align 8, !tbaa !11
  %57 = call i32 @sqlite3_bind_text(ptr noundef %55, i32 noundef 2, ptr noundef %56, i32 noundef -1, ptr noundef inttoptr (i64 -1 to ptr))
  store i32 %57, ptr %12, align 4, !tbaa !13
  %58 = load i32, ptr %12, align 4, !tbaa !13
  %59 = icmp ne i32 %58, 0
  br i1 %59, label %60, label %66

60:                                               ; preds = %54
  %61 = load ptr, ptr @stderr, align 8, !tbaa !60
  %62 = load ptr, ptr getelementptr inbounds nuw (%struct.darktable_t, ptr @darktable, i32 0, i32 18), align 8, !tbaa !59
  %63 = call ptr @dt_database_get(ptr noundef %62)
  %64 = call ptr @sqlite3_errmsg(ptr noundef %63)
  %65 = call i32 (ptr, ptr, ...) @fprintf(ptr noundef %61, ptr noundef @.str.48, ptr noundef @.str.43, i32 noundef 1989, ptr noundef @__FUNCTION__.dt_gui_presets_update_format, ptr noundef %64) #11
  br label %66

66:                                               ; preds = %60, %54
  call void @llvm.lifetime.end.p0(i64 4, ptr %12) #11
  call void @llvm.lifetime.start.p0(i64 4, ptr %13) #11
  %67 = load ptr, ptr %9, align 8, !tbaa !62
  %68 = load i32, ptr %7, align 4, !tbaa !13
  %69 = call i32 @sqlite3_bind_int(ptr noundef %67, i32 noundef 3, i32 noundef %68)
  store i32 %69, ptr %13, align 4, !tbaa !13
  %70 = load i32, ptr %13, align 4, !tbaa !13
  %71 = icmp ne i32 %70, 0
  br i1 %71, label %72, label %78

72:                                               ; preds = %66
  %73 = load ptr, ptr @stderr, align 8, !tbaa !60
  %74 = load ptr, ptr getelementptr inbounds nuw (%struct.darktable_t, ptr @darktable, i32 0, i32 18), align 8, !tbaa !59
  %75 = call ptr @dt_database_get(ptr noundef %74)
  %76 = call ptr @sqlite3_errmsg(ptr noundef %75)
  %77 = call i32 (ptr, ptr, ...) @fprintf(ptr noundef %73, ptr noundef @.str.48, ptr noundef @.str.43, i32 noundef 1990, ptr noundef @__FUNCTION__.dt_gui_presets_update_format, ptr noundef %76) #11
  br label %78

78:                                               ; preds = %72, %66
  call void @llvm.lifetime.end.p0(i64 4, ptr %13) #11
  call void @llvm.lifetime.start.p0(i64 4, ptr %14) #11
  %79 = load ptr, ptr %9, align 8, !tbaa !62
  %80 = load ptr, ptr %5, align 8, !tbaa !11
  %81 = call i32 @sqlite3_bind_text(ptr noundef %79, i32 noundef 4, ptr noundef %80, i32 noundef -1, ptr noundef inttoptr (i64 -1 to ptr))
  store i32 %81, ptr %14, align 4, !tbaa !13
  %82 = load i32, ptr %14, align 4, !tbaa !13
  %83 = icmp ne i32 %82, 0
  br i1 %83, label %84, label %90

84:                                               ; preds = %78
  %85 = load ptr, ptr @stderr, align 8, !tbaa !60
  %86 = load ptr, ptr getelementptr inbounds nuw (%struct.darktable_t, ptr @darktable, i32 0, i32 18), align 8, !tbaa !59
  %87 = call ptr @dt_database_get(ptr noundef %86)
  %88 = call ptr @sqlite3_errmsg(ptr noundef %87)
  %89 = call i32 (ptr, ptr, ...) @fprintf(ptr noundef %85, ptr noundef @.str.48, ptr noundef @.str.43, i32 noundef 1991, ptr noundef @__FUNCTION__.dt_gui_presets_update_format, ptr noundef %88) #11
  br label %90

90:                                               ; preds = %84, %78
  call void @llvm.lifetime.end.p0(i64 4, ptr %14) #11
  %91 = load ptr, ptr %9, align 8, !tbaa !62
  %92 = call i32 @sqlite3_step(ptr noundef %91)
  %93 = load ptr, ptr %9, align 8, !tbaa !62
  %94 = call i32 @sqlite3_finalize(ptr noundef %93)
  call void @llvm.lifetime.end.p0(i64 8, ptr %9) #11
  ret void
}